; Function Attrs: mustprogress uwtable
define internal void @"_ZN9grpc_core5Party15ParticipantImplIZNS_12BatchBuilder17PendingCompletion18CompletionCallbackEPvN4absl12lts_202308026StatusEE3$_0ZNS3_18CompletionCallbackES4_S7_E3$_1E7DestroyEv"(ptr noundef nonnull align 8 dereferenceable(56) %this) unnamed_addr #4 align 2 personality ptr @__gxx_personality_v0 {
entry:
  %0 = tail call align 8 ptr @llvm.threadlocal.address.p0(ptr align 8 @_ZN9grpc_core14promise_detail7ContextINS_5ArenaEE8current_E)
  %1 = load ptr, ptr %0, align 8
  %cmp.not.i = icmp eq ptr %1, null
  br i1 %cmp.not.i, label %if.then.i, label %_ZN9grpc_core10GetContextINS_5ArenaEEEPT_v.exit

if.then.i:                                        ; preds = %entry
  tail call void @gpr_assertion_failed(ptr noundef nonnull @.str.15, i32 noundef 80, ptr noundef nonnull @.str.16) #24
  unreachable

_ZN9grpc_core10GetContextINS_5ArenaEEEPT_v.exit:  ; preds = %entry
  %started_.i.i = getelementptr inbounds i8, ptr %this, i64 48
  %2 = load i8, ptr %started_.i.i, align 8
  %3 = and i8 %2, 1
  %tobool.not.i.i = icmp eq i8 %3, 0
  %4 = getelementptr inbounds i8, ptr %this, i64 40
  %.val.i.i = load i64, ptr %4, align 8
  %and.i.i.i.i.i.i.i.i = and i64 %.val.i.i, 1
  %cmp.i.i.i.i.i.i.i.i = icmp eq i64 %and.i.i.i.i.i.i.i.i, 0
  br i1 %tobool.not.i.i, label %if.then.i.i, label %if.else.i.i

if.then.i.i:                                      ; preds = %_ZN9grpc_core10GetContextINS_5ArenaEEEPT_v.exit
  br i1 %cmp.i.i.i.i.i.i.i.i, label %"_ZN9grpc_core5Arena12DeletePooledINS_5Party15ParticipantImplIZNS_12BatchBuilder17PendingCompletion18CompletionCallbackEPvN4absl12lts_202308026StatusEE3$_0ZNS5_18CompletionCallbackES6_S9_E3$_1EEEEvPT_.exit", label %if.then.i.i.i.i.i.i.i

if.then.i.i.i.i.i.i.i:                            ; preds = %if.then.i.i
  invoke void @_ZN4absl12lts_202308026Status15UnrefNonInlinedEm(i64 noundef %.val.i.i)
          to label %"_ZN9grpc_core5Arena12DeletePooledINS_5Party15ParticipantImplIZNS_12BatchBuilder17PendingCompletion18CompletionCallbackEPvN4absl12lts_202308026StatusEE3$_0ZNS5_18CompletionCallbackES6_S9_E3$_1EEEEvPT_.exit" unwind label %terminate.lpad.i.i.i.i.i.i

terminate.lpad.i.i.i.i.i.i:                       ; preds = %if.then.i.i.i.i.i.i.i
  %5 = landingpad { ptr, i32 }
          catch ptr null
  %6 = extractvalue { ptr, i32 } %5, 0
  tail call void @__clang_call_terminate(ptr %6) #22
  unreachable

if.else.i.i:                                      ; preds = %_ZN9grpc_core10GetContextINS_5ArenaEEEPT_v.exit
  br i1 %cmp.i.i.i.i.i.i.i.i, label %"_ZN9grpc_core5Arena12DeletePooledINS_5Party15ParticipantImplIZNS_12BatchBuilder17PendingCompletion18CompletionCallbackEPvN4absl12lts_202308026StatusEE3$_0ZNS5_18CompletionCallbackES6_S9_E3$_1EEEEvPT_.exit", label %if.then.i.i.i.i.i4.i.i

if.then.i.i.i.i.i4.i.i:                           ; preds = %if.else.i.i
  invoke void @_ZN4absl12lts_202308026Status15UnrefNonInlinedEm(i64 noundef %.val.i.i)
          to label %"_ZN9grpc_core5Arena12DeletePooledINS_5Party15ParticipantImplIZNS_12BatchBuilder17PendingCompletion18CompletionCallbackEPvN4absl12lts_202308026StatusEE3$_0ZNS5_18CompletionCallbackES6_S9_E3$_1EEEEvPT_.exit" unwind label %terminate.lpad.i.i.i.i5.i.i

terminate.lpad.i.i.i.i5.i.i:                      ; preds = %if.then.i.i.i.i.i4.i.i
  %7 = landingpad { ptr, i32 }
          catch ptr null
  %8 = extractvalue { ptr, i32 } %7, 0
  tail call void @__clang_call_terminate(ptr %8) #22
  unreachable

"_ZN9grpc_core5Arena12DeletePooledINS_5Party15ParticipantImplIZNS_12BatchBuilder17PendingCompletion18CompletionCallbackEPvN4absl12lts_202308026StatusEE3$_0ZNS5_18CompletionCallbackES6_S9_E3$_1EEEEvPT_.exit": ; preds = %if.then.i.i, %if.then.i.i.i.i.i.i.i, %if.else.i.i, %if.then.i.i.i.i.i4.i.i
  tail call void @_ZN9grpc_core5Party11ParticipantD2Ev(ptr noundef nonnull align 8 dereferenceable(32) %this) #20
  tail call void @_ZdlPv(ptr noundef nonnull %this) #23
  ret void
}